target datalayout = "e-m:e-p270:32:32-p271:32:32-p272:64:64-i64:64-i128:128-f80:128-n8:16:32:64-S128"
target triple = "x86_64-unknown-linux-gnu"

%"struct.std::pair.51" = type { i64, double }
%class.anon.61 = type { ptr, ptr, ptr, ptr, ptr, ptr, ptr, ptr }

; Function Attrs: inlinehint mustprogress nounwind uwtable
define linkonce_odr noundef double @_ZN8QuantLib7squaredIdEET_S1_(double noundef %x) #5 comdat {
entry:
  %x.addr = alloca double, align 8
  store double %x, ptr %x.addr, align 8, !tbaa !14
  %0 = load double, ptr %x.addr, align 8, !tbaa !14
  %1 = load double, ptr %x.addr, align 8, !tbaa !14
  %mul = fmul double %0, %1
  ret double %mul
}

; Function Attrs: inlinehint mustprogress uwtable
define internal noundef double @"_ZZNK8QuantLib20QdPlusAmericanEngine22getPutExerciseBoundaryEddddddENK3$_0clEd"(ptr noundef nonnull align 8 dereferenceable(64) %this, double noundef %z) #4 align 2 {
entry:
  %this.addr = alloca ptr, align 8
  %z.addr = alloca double, align 8
  %x_sq = alloca double, align 8
  %ref.tmp = alloca %"struct.std::pair.51", align 8
  store ptr %this, ptr %this.addr, align 8, !tbaa !3
  store double %z, ptr %z.addr, align 8, !tbaa !14
  %this1 = load ptr, ptr %this.addr, align 8
  %0 = getelementptr inbounds nuw %class.anon.61, ptr %this1, i32 0, i32 0
  %1 = load ptr, ptr %0, align 8, !tbaa !141
  call void @llvm.lifetime.start.p0(i64 8, ptr %x_sq) #14
  %2 = getelementptr inbounds nuw %class.anon.61, ptr %this1, i32 0, i32 1
  %3 = load ptr, ptr %2, align 8, !tbaa !507
  %4 = load double, ptr %3, align 8, !tbaa !14
  %mul = fmul double 2.500000e-01, %4
  %5 = load double, ptr %z.addr, align 8, !tbaa !14
  %add = fadd double 1.000000e+00, %5
  %call = call noundef double @_ZN8QuantLib7squaredIdEET_S1_(double noundef %add)
  %mul2 = fmul double %mul, %call
  store double %mul2, ptr %x_sq, align 8, !tbaa !14
  call void @llvm.lifetime.start.p0(i64 16, ptr %ref.tmp) #14
  %6 = getelementptr inbounds nuw %class.anon.61, ptr %this1, i32 0, i32 2
  %7 = load ptr, ptr %6, align 8, !tbaa !508
  %8 = load double, ptr %7, align 8, !tbaa !14
  %9 = getelementptr inbounds nuw %class.anon.61, ptr %this1, i32 0, i32 3
  %10 = load ptr, ptr %9, align 8, !tbaa !509
  %11 = load double, ptr %10, align 8, !tbaa !14
  %12 = getelementptr inbounds nuw %class.anon.61, ptr %this1, i32 0, i32 4
  %13 = load ptr, ptr %12, align 8, !tbaa !510
  %14 = load double, ptr %13, align 8, !tbaa !14
  %15 = getelementptr inbounds nuw %class.anon.61, ptr %this1, i32 0, i32 5
  %16 = load ptr, ptr %15, align 8, !tbaa !511
  %17 = load double, ptr %16, align 8, !tbaa !14
  %18 = getelementptr inbounds nuw %class.anon.61, ptr %this1, i32 0, i32 6
  %19 = load ptr, ptr %18, align 8, !tbaa !512
  %20 = load double, ptr %19, align 8, !tbaa !14
  %21 = getelementptr inbounds nuw %class.anon.61, ptr %this1, i32 0, i32 1
  %22 = load ptr, ptr %21, align 8, !tbaa !507
  %23 = load double, ptr %22, align 8, !tbaa !14
  %24 = load double, ptr %x_sq, align 8, !tbaa !14
  %call3 = call { i64, double } @_ZNK8QuantLib20QdPlusAmericanEngine24putExerciseBoundaryAtTauEddddddd(ptr noundef nonnull align 8 dereferenceable(384) %1, double noundef %8, double noundef %11, double noundef %14, double noundef %17, double noundef %20, double noundef %23, double noundef %24)
  %25 = getelementptr inbounds nuw { i64, double }, ptr %ref.tmp, i32 0, i32 0
  %26 = extractvalue { i64, double } %call3, 0
  store i64 %26, ptr %25, align 8
  %27 = getelementptr inbounds nuw { i64, double }, ptr %ref.tmp, i32 0, i32 1
  %28 = extractvalue { i64, double } %call3, 1
  store double %28, ptr %27, align 8
  %second = getelementptr inbounds nuw %"struct.std::pair.51", ptr %ref.tmp, i32 0, i32 1
  %29 = load double, ptr %second, align 8, !tbaa !110
  %30 = getelementptr inbounds nuw %class.anon.61, ptr %this1, i32 0, i32 7
  %31 = load ptr, ptr %30, align 8, !tbaa !513
  %32 = load double, ptr %31, align 8, !tbaa !14
  %div = fdiv double %29, %32
  %call4 = call double @log(double noundef %div) #14, !tbaa !31
  %call5 = call noundef double @_ZN8QuantLib7squaredIdEET_S1_(double noundef %call4)
  call void @llvm.lifetime.end.p0(i64 16, ptr %ref.tmp) #14
  call void @llvm.lifetime.end.p0(i64 8, ptr %x_sq) #14
  ret double %call5
}

; Function Attrs: mustprogress nounwind uwtable
define linkonce_odr noundef ptr @_ZNKSt9_Any_data9_M_accessEv(ptr noundef nonnull align 8 dereferenceable(16) %this) #1 comdat align 2 {
entry:
  %this.addr = alloca ptr, align 8
  store ptr %this, ptr %this.addr, align 8, !tbaa !3
  %this1 = load ptr, ptr %this.addr, align 8
  %arrayidx = getelementptr inbounds [16 x i8], ptr %this1, i64 0, i64 0
  ret ptr %arrayidx
}

; Function Attrs: mustprogress uwtable
define internal noundef double @"_ZSt13__invoke_implIdRZNK8QuantLib20QdPlusAmericanEngine22getPutExerciseBoundaryEddddddE3$_0JdEET_St14__invoke_otherOT0_DpOT1_"(ptr noundef nonnull align 8 dereferenceable(64) %__f, ptr noundef nonnull align 8 dereferenceable(8) %__args) #2 {
entry:
  %__f.addr = alloca ptr, align 8
  %__args.addr = alloca ptr, align 8
  store ptr %__f, ptr %__f.addr, align 8, !tbaa !3
  store ptr %__args, ptr %__args.addr, align 8, !tbaa !3
  %0 = load ptr, ptr %__f.addr, align 8, !tbaa !3
  %1 = load ptr, ptr %__args.addr, align 8, !tbaa !3
  %2 = load double, ptr %1, align 8, !tbaa !14
  %call = call noundef double @"_ZZNK8QuantLib20QdPlusAmericanEngine22getPutExerciseBoundaryEddddddENK3$_0clEd"(ptr noundef nonnull align 8 dereferenceable(64) %0, double noundef %2)
  ret double %call
}

; Function Attrs: mustprogress nounwind uwtable
define internal noundef nonnull align 8 dereferenceable(8) ptr @"_ZNKSt9_Any_data9_M_accessIPZNK8QuantLib20QdPlusAmericanEngine22getPutExerciseBoundaryEddddddE3$_0EERKT_v"(ptr noundef nonnull align 8 dereferenceable(16) %this) #1 align 2 {
entry:
  %this.addr = alloca ptr, align 8
  store ptr %this, ptr %this.addr, align 8, !tbaa !3
  %this1 = load ptr, ptr %this.addr, align 8
  %call = call noundef ptr @_ZNKSt9_Any_data9_M_accessEv(ptr noundef nonnull align 8 dereferenceable(16) %this1) #14
  ret ptr %call
}

; Function Attrs: mustprogress uwtable
define internal noundef double @"_ZSt10__invoke_rIdRZNK8QuantLib20QdPlusAmericanEngine22getPutExerciseBoundaryEddddddE3$_0JdEENSt9enable_ifIX16is_invocable_r_vIT_T0_DpT1_EES5_E4typeEOS6_DpOS7_"(ptr noundef nonnull align 8 dereferenceable(64) %__fn, ptr noundef nonnull align 8 dereferenceable(8) %__args) #2 {
entry:
  %__fn.addr = alloca ptr, align 8
  %__args.addr = alloca ptr, align 8
  store ptr %__fn, ptr %__fn.addr, align 8, !tbaa !3
  store ptr %__args, ptr %__args.addr, align 8, !tbaa !3
  %0 = load ptr, ptr %__fn.addr, align 8, !tbaa !3
  %1 = load ptr, ptr %__args.addr, align 8, !tbaa !3
  %call = call noundef double @"_ZSt13__invoke_implIdRZNK8QuantLib20QdPlusAmericanEngine22getPutExerciseBoundaryEddddddE3$_0JdEET_St14__invoke_otherOT0_DpOT1_"(ptr noundef nonnull align 8 dereferenceable(64) %0, ptr noundef nonnull align 8 dereferenceable(8) %1)
  ret double %call
}

; Function Attrs: mustprogress nounwind uwtable
define internal noundef ptr @"_ZNSt14_Function_base13_Base_managerIZNK8QuantLib20QdPlusAmericanEngine22getPutExerciseBoundaryEddddddE3$_0E14_M_get_pointerERKSt9_Any_data"(ptr noundef nonnull align 8 dereferenceable(16) %__source) #1 align 2 {
entry:
  %__source.addr = alloca ptr, align 8
  store ptr %__source, ptr %__source.addr, align 8, !tbaa !3
  %0 = load ptr, ptr %__source.addr, align 8, !tbaa !3
  %call = call noundef nonnull align 8 dereferenceable(8) ptr @"_ZNKSt9_Any_data9_M_accessIPZNK8QuantLib20QdPlusAmericanEngine22getPutExerciseBoundaryEddddddE3$_0EERKT_v"(ptr noundef nonnull align 8 dereferenceable(16) %0) #14
  %1 = load ptr, ptr %call, align 8, !tbaa !3
  ret ptr %1
}

; Function Attrs: mustprogress uwtable
define internal noundef double @"_ZNSt17_Function_handlerIFddEZNK8QuantLib20QdPlusAmericanEngine22getPutExerciseBoundaryEddddddE3$_0E9_M_invokeERKSt9_Any_dataOd"(ptr noundef nonnull align 8 dereferenceable(16) %__functor, ptr noundef nonnull align 8 dereferenceable(8) %__args) #2 align 2 {
entry:
  %__functor.addr = alloca ptr, align 8
  %__args.addr = alloca ptr, align 8
  store ptr %__functor, ptr %__functor.addr, align 8, !tbaa !3
  store ptr %__args, ptr %__args.addr, align 8, !tbaa !3
  %0 = load ptr, ptr %__functor.addr, align 8, !tbaa !3
  %call = call noundef ptr @"_ZNSt14_Function_base13_Base_managerIZNK8QuantLib20QdPlusAmericanEngine22getPutExerciseBoundaryEddddddE3$_0E14_M_get_pointerERKSt9_Any_data"(ptr noundef nonnull align 8 dereferenceable(16) %0) #14
  %1 = load ptr, ptr %__args.addr, align 8, !tbaa !3
  %call1 = call noundef double @"_ZSt10__invoke_rIdRZNK8QuantLib20QdPlusAmericanEngine22getPutExerciseBoundaryEddddddE3$_0JdEENSt9enable_ifIX16is_invocable_r_vIT_T0_DpT1_EES5_E4typeEOS6_DpOS7_"(ptr noundef nonnull align 8 dereferenceable(64) %call, ptr noundef nonnull align 8 dereferenceable(8) %1)
  ret double %call1
}