; Function Attrs: mustprogress uwtable
define internal noundef double @"_ZNSt17_Function_handlerIFddEZNK8QuantLib20QdPlusAmericanEngine22getPutExerciseBoundaryEddddddE3$_0E9_M_invokeERKSt9_Any_dataOd"(ptr nocapture noundef nonnull readonly align 8 dereferenceable(16) %__functor, ptr nocapture noundef nonnull readonly align 8 dereferenceable(8) %__args) #8 align 2 {
entry:
  %__functor.val = load ptr, ptr %__functor, align 8, !tbaa !3
  %__args.val = load double, ptr %__args, align 8, !tbaa !174
  %0 = load ptr, ptr %__functor.val, align 8, !tbaa !406
  %1 = getelementptr inbounds nuw i8, ptr %__functor.val, i64 8
  %2 = load ptr, ptr %1, align 8, !tbaa !408
  %3 = load double, ptr %2, align 8, !tbaa !174
  %mul.i.i.i = fmul double %3, 2.500000e-01
  %add.i.i.i = fadd double %__args.val, 1.000000e+00
  %mul.i.i.i.i = fmul double %add.i.i.i, %add.i.i.i
  %mul2.i.i.i = fmul double %mul.i.i.i.i, %mul.i.i.i
  %4 = getelementptr inbounds nuw i8, ptr %__functor.val, i64 16
  %5 = load ptr, ptr %4, align 8, !tbaa !409
  %6 = load double, ptr %5, align 8, !tbaa !174
  %7 = getelementptr inbounds nuw i8, ptr %__functor.val, i64 24
  %8 = load ptr, ptr %7, align 8, !tbaa !410
  %9 = load double, ptr %8, align 8, !tbaa !174
  %10 = getelementptr inbounds nuw i8, ptr %__functor.val, i64 32
  %11 = load ptr, ptr %10, align 8, !tbaa !411
  %12 = load double, ptr %11, align 8, !tbaa !174
  %13 = getelementptr inbounds nuw i8, ptr %__functor.val, i64 40
  %14 = load ptr, ptr %13, align 8, !tbaa !412
  %15 = load double, ptr %14, align 8, !tbaa !174
  %16 = getelementptr inbounds nuw i8, ptr %__functor.val, i64 48
  %17 = load ptr, ptr %16, align 8, !tbaa !413
  %18 = load double, ptr %17, align 8, !tbaa !174
  %call3.i.i.i = tail call { i64, double } @_ZNK8QuantLib20QdPlusAmericanEngine24putExerciseBoundaryAtTauEddddddd(ptr noundef nonnull align 8 dereferenceable(384) %0, double noundef %6, double noundef %9, double noundef %12, double noundef %15, double noundef %18, double noundef %3, double noundef %mul2.i.i.i)
  %19 = extractvalue { i64, double } %call3.i.i.i, 1
  %20 = getelementptr inbounds nuw i8, ptr %__functor.val, i64 56
  %21 = load ptr, ptr %20, align 8, !tbaa !414
  %22 = load double, ptr %21, align 8, !tbaa !174
  %div.i.i.i = fdiv double %19, %22
  %call4.i.i.i = tail call double @log(double noundef %div.i.i.i) #34, !tbaa !61
  %mul.i1.i.i.i = fmul double %call4.i.i.i, %call4.i.i.i
  ret double %mul.i1.i.i.i
}